; ModuleID = 'source-C-CXX/41/329.c'
source_filename = "source-C-CXX/41/329.c"
target datalayout = "e-m:e-p270:32:32-p271:32:32-p272:64:64-i64:64-f80:128-n8:16:32:64-S128"
target triple = "x86_64-pc-linux-gnu"

@.str = private unnamed_addr constant [4 x i8] c"%d\0A\00", align 1
@.str.1 = private unnamed_addr constant [3 x i8] c"%d\00", align 1
@.str.2 = private unnamed_addr constant [4 x i8] c"%d \00", align 1

; Function Attrs: nofree nounwind sspstrong uwtable
define dso_local i32 @main() local_unnamed_addr #0 {
  %1 = alloca i32, align 4
  %2 = alloca i32, align 4
  %3 = alloca [100000 x i32], align 16
  %4 = bitcast i32* %1 to i8*
  call void @llvm.lifetime.start.p0i8(i64 4, i8* nonnull %4) #3
  %5 = bitcast i32* %2 to i8*
  call void @llvm.lifetime.start.p0i8(i64 4, i8* nonnull %5) #3
  %6 = bitcast [100000 x i32]* %3 to i8*
  call void @llvm.lifetime.start.p0i8(i64 400000, i8* nonnull %6) #3
  %7 = call i32 (i8*, ...) @__isoc99_scanf(i8* getelementptr inbounds ([4 x i8], [4 x i8]* @.str, i64 0, i64 0), i32* nonnull %1)
  %8 = load i32, i32* %1, align 4, !tbaa !5
  %9 = icmp sgt i32 %8, 0
  br i1 %9, label %10, label %18

10:                                               ; preds = %0, %10
  %11 = phi i64 [ %14, %10 ], [ 0, %0 ]
  %12 = getelementptr inbounds [100000 x i32], [100000 x i32]* %3, i64 0, i64 %11
  %13 = call i32 (i8*, ...) @__isoc99_scanf(i8* getelementptr inbounds ([3 x i8], [3 x i8]* @.str.1, i64 0, i64 0), i32* nonnull %12)
  %14 = add nuw nsw i64 %11, 1
  %15 = load i32, i32* %1, align 4, !tbaa !5
  %16 = sext i32 %15 to i64
  %17 = icmp slt i64 %14, %16
  br i1 %17, label %10, label %18, !llvm.loop !9

18:                                               ; preds = %10, %0
  %19 = call i32 (i8*, ...) @__isoc99_scanf(i8* getelementptr inbounds ([3 x i8], [3 x i8]* @.str.1, i64 0, i64 0), i32* nonnull %2)
  %20 = load i32, i32* %2, align 4
  %21 = load i32, i32* %1, align 4, !tbaa !5
  %22 = add nsw i32 %21, -1
  %23 = icmp sgt i32 %21, 1
  br i1 %23, label %24, label %114

24:                                               ; preds = %18, %108
  %25 = phi i32 [ %109, %108 ], [ %21, %18 ]
  %26 = phi i32 [ %112, %108 ], [ %22, %18 ]
  %27 = phi i32 [ %111, %108 ], [ 0, %18 ]
  %28 = sext i32 %27 to i64
  %29 = getelementptr inbounds [100000 x i32], [100000 x i32]* %3, i64 0, i64 %28
  %30 = load i32, i32* %29, align 4, !tbaa !5
  %31 = icmp eq i32 %30, %20
  br i1 %31, label %32, label %108

32:                                               ; preds = %24
  %33 = icmp slt i32 %27, %25
  br i1 %33, label %34, label %106

34:                                               ; preds = %32
  %35 = sext i32 %25 to i64
  %36 = sub nsw i64 %35, %28
  %37 = icmp ult i64 %36, 8
  br i1 %37, label %97, label %38

38:                                               ; preds = %34
  %39 = and i64 %36, -8
  %40 = add nsw i64 %39, %28
  %41 = add nsw i64 %39, -8
  %42 = lshr exact i64 %41, 3
  %43 = add nuw nsw i64 %42, 1
  %44 = and i64 %43, 1
  %45 = icmp eq i64 %41, 0
  br i1 %45, label %79, label %46

46:                                               ; preds = %38
  %47 = and i64 %43, 4611686018427387902
  br label %48

48:                                               ; preds = %48, %46
  %49 = phi i64 [ 0, %46 ], [ %76, %48 ]
  %50 = phi i64 [ %47, %46 ], [ %77, %48 ]
  %51 = add i64 %49, %28
  %52 = add nsw i64 %51, 1
  %53 = getelementptr inbounds [100000 x i32], [100000 x i32]* %3, i64 0, i64 %52
  %54 = bitcast i32* %53 to <4 x i32>*
  %55 = load <4 x i32>, <4 x i32>* %54, align 4, !tbaa !5
  %56 = getelementptr inbounds i32, i32* %53, i64 4
  %57 = bitcast i32* %56 to <4 x i32>*
  %58 = load <4 x i32>, <4 x i32>* %57, align 4, !tbaa !5
  %59 = getelementptr inbounds [100000 x i32], [100000 x i32]* %3, i64 0, i64 %51
  %60 = bitcast i32* %59 to <4 x i32>*
  store <4 x i32> %55, <4 x i32>* %60, align 4, !tbaa !5
  %61 = getelementptr inbounds i32, i32* %59, i64 4
  %62 = bitcast i32* %61 to <4 x i32>*
  store <4 x i32> %58, <4 x i32>* %62, align 4, !tbaa !5
  %63 = or i64 %49, 8
  %64 = add i64 %63, %28
  %65 = add nsw i64 %64, 1
  %66 = getelementptr inbounds [100000 x i32], [100000 x i32]* %3, i64 0, i64 %65
  %67 = bitcast i32* %66 to <4 x i32>*
  %68 = load <4 x i32>, <4 x i32>* %67, align 4, !tbaa !5
  %69 = getelementptr inbounds i32, i32* %66, i64 4
  %70 = bitcast i32* %69 to <4 x i32>*
  %71 = load <4 x i32>, <4 x i32>* %70, align 4, !tbaa !5
  %72 = getelementptr inbounds [100000 x i32], [100000 x i32]* %3, i64 0, i64 %64
  %73 = bitcast i32* %72 to <4 x i32>*
  store <4 x i32> %68, <4 x i32>* %73, align 4, !tbaa !5
  %74 = getelementptr inbounds i32, i32* %72, i64 4
  %75 = bitcast i32* %74 to <4 x i32>*
  store <4 x i32> %71, <4 x i32>* %75, align 4, !tbaa !5
  %76 = add nuw i64 %49, 16
  %77 = add i64 %50, -2
  %78 = icmp eq i64 %77, 0
  br i1 %78, label %79, label %48, !llvm.loop !11

79:                                               ; preds = %48, %38
  %80 = phi i64 [ 0, %38 ], [ %76, %48 ]
  %81 = icmp eq i64 %44, 0
  br i1 %81, label %95, label %82

82:                                               ; preds = %79
  %83 = add i64 %80, %28
  %84 = add nsw i64 %83, 1
  %85 = getelementptr inbounds [100000 x i32], [100000 x i32]* %3, i64 0, i64 %84
  %86 = bitcast i32* %85 to <4 x i32>*
  %87 = load <4 x i32>, <4 x i32>* %86, align 4, !tbaa !5
  %88 = getelementptr inbounds i32, i32* %85, i64 4
  %89 = bitcast i32* %88 to <4 x i32>*
  %90 = load <4 x i32>, <4 x i32>* %89, align 4, !tbaa !5
  %91 = getelementptr inbounds [100000 x i32], [100000 x i32]* %3, i64 0, i64 %83
  %92 = bitcast i32* %91 to <4 x i32>*
  store <4 x i32> %87, <4 x i32>* %92, align 4, !tbaa !5
  %93 = getelementptr inbounds i32, i32* %91, i64 4
  %94 = bitcast i32* %93 to <4 x i32>*
  store <4 x i32> %90, <4 x i32>* %94, align 4, !tbaa !5
  br label %95

95:                                               ; preds = %79, %82
  %96 = icmp eq i64 %36, %39
  br i1 %96, label %106, label %97

97:                                               ; preds = %34, %95
  %98 = phi i64 [ %28, %34 ], [ %40, %95 ]
  br label %99

99:                                               ; preds = %97, %99
  %100 = phi i64 [ %101, %99 ], [ %98, %97 ]
  %101 = add nsw i64 %100, 1
  %102 = getelementptr inbounds [100000 x i32], [100000 x i32]* %3, i64 0, i64 %101
  %103 = load i32, i32* %102, align 4, !tbaa !5
  %104 = getelementptr inbounds [100000 x i32], [100000 x i32]* %3, i64 0, i64 %100
  store i32 %103, i32* %104, align 4, !tbaa !5
  %105 = icmp eq i64 %101, %35
  br i1 %105, label %106, label %99, !llvm.loop !13

106:                                              ; preds = %99, %95, %32
  %107 = add nsw i32 %27, -1
  store i32 %26, i32* %1, align 4, !tbaa !5
  br label %108

108:                                              ; preds = %24, %106
  %109 = phi i32 [ %26, %106 ], [ %25, %24 ]
  %110 = phi i32 [ %107, %106 ], [ %27, %24 ]
  %111 = add nsw i32 %110, 1
  %112 = add nsw i32 %109, -1
  %113 = icmp slt i32 %111, %112
  br i1 %113, label %24, label %114, !llvm.loop !15

114:                                              ; preds = %108, %18
  %115 = phi i32 [ %21, %18 ], [ %109, %108 ]
  %116 = phi i32 [ %22, %18 ], [ %112, %108 ]
  %117 = sext i32 %116 to i64
  %118 = getelementptr inbounds [100000 x i32], [100000 x i32]* %3, i64 0, i64 %117
  %119 = load i32, i32* %118, align 4, !tbaa !5
  %120 = icmp eq i32 %119, %20
  %121 = select i1 %120, i32 %116, i32 %115
  %122 = add i32 %121, -1
  %123 = icmp sgt i32 %121, 1
  br i1 %123, label %124, label %133

124:                                              ; preds = %114
  %125 = zext i32 %122 to i64
  br label %126

126:                                              ; preds = %124, %126
  %127 = phi i64 [ 0, %124 ], [ %131, %126 ]
  %128 = getelementptr inbounds [100000 x i32], [100000 x i32]* %3, i64 0, i64 %127
  %129 = load i32, i32* %128, align 4, !tbaa !5
  %130 = call i32 (i8*, ...) @printf(i8* nonnull dereferenceable(1) getelementptr inbounds ([4 x i8], [4 x i8]* @.str.2, i64 0, i64 0), i32 %129)
  %131 = add nuw nsw i64 %127, 1
  %132 = icmp eq i64 %131, %125
  br i1 %132, label %133, label %126, !llvm.loop !16

133:                                              ; preds = %126, %114
  %134 = sext i32 %122 to i64
  %135 = getelementptr inbounds [100000 x i32], [100000 x i32]* %3, i64 0, i64 %134
  %136 = load i32, i32* %135, align 4, !tbaa !5
  %137 = call i32 (i8*, ...) @printf(i8* nonnull dereferenceable(1) getelementptr inbounds ([3 x i8], [3 x i8]* @.str.1, i64 0, i64 0), i32 %136)
  call void @llvm.lifetime.end.p0i8(i64 400000, i8* nonnull %6) #3
  call void @llvm.lifetime.end.p0i8(i64 4, i8* nonnull %5) #3
  call void @llvm.lifetime.end.p0i8(i64 4, i8* nonnull %4) #3
  ret i32 0
}

; Function Attrs: argmemonly mustprogress nofree nosync nounwind willreturn
declare void @llvm.lifetime.start.p0i8(i64 immarg, i8* nocapture) #1

; Function Attrs: nofree nounwind
declare noundef i32 @__isoc99_scanf(i8* nocapture noundef readonly, ...) local_unnamed_addr #2

; Function Attrs: nofree nounwind
declare noundef i32 @printf(i8* nocapture noundef readonly, ...) local_unnamed_addr #2

; Function Attrs: argmemonly mustprogress nofree nosync nounwind willreturn
declare void @llvm.lifetime.end.p0i8(i64 immarg, i8* nocapture) #1


!llvm.module.flags = !{!0, !1, !2, !3}
!llvm.ident = !{!4}

!0 = !{i32 1, !"wchar_size", i32 4}
!1 = !{i32 7, !"PIC Level", i32 2}
!2 = !{i32 7, !"PIE Level", i32 2}
!3 = !{i32 7, !"uwtable", i32 1}
!4 = !{!"clang version 13.0.0"}
!5 = !{!6, !6, i64 0}
!6 = !{!"int", !7, i64 0}
!7 = !{!"omnipotent char", !8, i64 0}
!8 = !{!"Simple C/C++ TBAA"}
!9 = distinct !{!9, !10}
!10 = !{!"llvm.loop.mustprogress"}
!11 = distinct !{!11, !10, !12}
!12 = !{!"llvm.loop.isvectorized", i32 1}
!13 = distinct !{!13, !10, !14, !12}
!14 = !{!"llvm.loop.unroll.runtime.disable"}
!15 = distinct !{!15, !10}
!16 = distinct !{!16, !10}
